target datalayout = "e-m:e-p270:32:32-p271:32:32-p272:64:64-i64:64-i128:128-f80:128-n8:16:32:64-S128"
target triple = "x86_64-pc-linux-gnu"

@H5Z_init_g = external global i8, align 1
@H5_libterm_g = external global i8, align 1
@.str.1 = private unnamed_addr constant [101 x i8] c"generated/home/dtcxzyw/WorkSpace/Projects/compilers/llvm-opt-benchmark/bench/hdf5/hdf5/src/H5Znbit.c\00", align 1
@H5E_BADTYPE_g = external global i64, align 8
@H5E_PLINE_g = external global i64, align 8
@.str.4 = private unnamed_addr constant [18 x i8] c"bad datatype size\00", align 1
@__func__.H5Z__set_parms_atomic = private unnamed_addr constant [22 x i8] c"H5Z__set_parms_atomic\00", align 1
@.str.22 = private unnamed_addr constant [30 x i8] c"bad datatype endianness order\00", align 1
@.str.23 = private unnamed_addr constant [23 x i8] c"bad datatype precision\00", align 1
@.str.24 = private unnamed_addr constant [20 x i8] c"bad datatype offset\00", align 1
@.str.25 = private unnamed_addr constant [34 x i8] c"invalid datatype precision/offset\00", align 1

; Function Attrs: nounwind uwtable
define internal i32 @H5Z__set_parms_atomic(ptr noundef %0, ptr noundef %1, ptr noundef %2, ptr noundef %3) #0 {
  %5 = alloca ptr, align 8
  %6 = alloca ptr, align 8
  %7 = alloca ptr, align 8
  %8 = alloca ptr, align 8
  %9 = alloca i32, align 4
  %10 = alloca i64, align 8
  %11 = alloca i64, align 8
  %12 = alloca i32, align 4
  %13 = alloca i32, align 4
  %14 = alloca i32, align 4
  %15 = alloca i8, align 1
  store ptr %0, ptr %5, align 8, !tbaa !13
  store ptr %1, ptr %6, align 8, !tbaa !16
  store ptr %2, ptr %7, align 8, !tbaa !16
  store ptr %3, ptr %8, align 8, !tbaa !29
  call void @llvm.lifetime.start.p0(i64 4, ptr %9) #6
  call void @llvm.lifetime.start.p0(i64 8, ptr %10) #6
  call void @llvm.lifetime.start.p0(i64 8, ptr %11) #6
  call void @llvm.lifetime.start.p0(i64 4, ptr %12) #6
  call void @llvm.lifetime.start.p0(i64 4, ptr %13) #6
  call void @llvm.lifetime.start.p0(i64 4, ptr %14) #6
  store i32 0, ptr %14, align 4, !tbaa !7
  call void @llvm.lifetime.start.p0(i64 1, ptr %15) #6
  store i8 0, ptr %15, align 1, !tbaa !9
  %16 = load i8, ptr @H5Z_init_g, align 1, !tbaa !9, !range !11, !noundef !12
  %17 = trunc i8 %16 to i1
  br i1 %17, label %22, label %18

18:                                               ; preds = %4
  %19 = load i8, ptr @H5_libterm_g, align 1, !tbaa !9, !range !11, !noundef !12
  %20 = trunc i8 %19 to i1
  %21 = xor i1 %20, true
  br label %22

22:                                               ; preds = %18, %4
  %23 = phi i1 [ true, %4 ], [ %21, %18 ]
  %24 = xor i1 %23, true
  %25 = xor i1 %24, true
  %26 = zext i1 %25 to i32
  %27 = sext i32 %26 to i64
  %28 = call i64 @llvm.expect.i64(i64 %27, i64 1)
  %29 = icmp ne i64 %28, 0
  br i1 %29, label %30, label %237

30:                                               ; preds = %22
  %31 = load ptr, ptr %7, align 8, !tbaa !16
  %32 = load ptr, ptr %6, align 8, !tbaa !16
  %33 = load i32, ptr %32, align 4, !tbaa !7
  %34 = add i32 %33, 1
  store i32 %34, ptr %32, align 4, !tbaa !7
  %35 = zext i32 %33 to i64
  %36 = getelementptr inbounds nuw i32, ptr %31, i64 %35
  store i32 1, ptr %36, align 4, !tbaa !7
  %37 = load ptr, ptr %5, align 8, !tbaa !13
  %38 = call i64 @H5T_get_size(ptr noundef %37)
  store i64 %38, ptr %10, align 8, !tbaa !3
  %39 = icmp eq i64 %38, 0
  br i1 %39, label %40, label %59

40:                                               ; preds = %30
  br label %41

41:                                               ; preds = %40
  br label %42

42:                                               ; preds = %41
  br label %43

43:                                               ; preds = %42
  %44 = load i64, ptr @H5E_PLINE_g, align 8, !tbaa !3
  %45 = load i64, ptr @H5E_BADTYPE_g, align 8, !tbaa !3
  %46 = call i32 (ptr, ptr, i32, i64, i64, ptr, ...) @H5E_printf_stack(ptr noundef @.str.1, ptr noundef @__func__.H5Z__set_parms_atomic, i32 noundef 436, i64 noundef %44, i64 noundef %45, ptr noundef @.str.4)
  br label %47

47:                                               ; preds = %43
  br label %48

48:                                               ; preds = %47
  store i8 1, ptr %15, align 1, !tbaa !9
  %49 = load i8, ptr %15, align 1, !tbaa !9, !range !11, !noundef !12
  %50 = trunc i8 %49 to i1
  %51 = zext i1 %50 to i8
  store i8 %51, ptr %15, align 1, !tbaa !9
  br label %52

52:                                               ; preds = %48
  br label %53

53:                                               ; preds = %52
  br label %54

54:                                               ; preds = %53
  store i32 -1, ptr %14, align 4, !tbaa !7
  br label %236

55:                                               ; No predecessors!
  br label %56

56:                                               ; preds = %55
  br label %57

57:                                               ; preds = %56
  br label %58

58:                                               ; preds = %57
  br label %59

59:                                               ; preds = %58, %30
  %60 = load i64, ptr %10, align 8, !tbaa !3
  %61 = trunc i64 %60 to i32
  %62 = load ptr, ptr %7, align 8, !tbaa !16
  %63 = load ptr, ptr %6, align 8, !tbaa !16
  %64 = load i32, ptr %63, align 4, !tbaa !7
  %65 = add i32 %64, 1
  store i32 %65, ptr %63, align 4, !tbaa !7
  %66 = zext i32 %64 to i64
  %67 = getelementptr inbounds nuw i32, ptr %62, i64 %66
  store i32 %61, ptr %67, align 4, !tbaa !7
  %68 = load ptr, ptr %5, align 8, !tbaa !13
  %69 = call i32 @H5T_get_order(ptr noundef %68)
  store i32 %69, ptr %9, align 4, !tbaa !7
  %70 = icmp eq i32 %69, -1
  br i1 %70, label %71, label %90

71:                                               ; preds = %59
  br label %72

72:                                               ; preds = %71
  br label %73

73:                                               ; preds = %72
  br label %74

74:                                               ; preds = %73
  %75 = load i64, ptr @H5E_PLINE_g, align 8, !tbaa !3
  %76 = load i64, ptr @H5E_BADTYPE_g, align 8, !tbaa !3
  %77 = call i32 (ptr, ptr, i32, i64, i64, ptr, ...) @H5E_printf_stack(ptr noundef @.str.1, ptr noundef @__func__.H5Z__set_parms_atomic, i32 noundef 444, i64 noundef %75, i64 noundef %76, ptr noundef @.str.22)
  br label %78

78:                                               ; preds = %74
  br label %79

79:                                               ; preds = %78
  store i8 1, ptr %15, align 1, !tbaa !9
  %80 = load i8, ptr %15, align 1, !tbaa !9, !range !11, !noundef !12
  %81 = trunc i8 %80 to i1
  %82 = zext i1 %81 to i8
  store i8 %82, ptr %15, align 1, !tbaa !9
  br label %83

83:                                               ; preds = %79
  br label %84

84:                                               ; preds = %83
  br label %85

85:                                               ; preds = %84
  store i32 -1, ptr %14, align 4, !tbaa !7
  br label %236

86:                                               ; No predecessors!
  br label %87

87:                                               ; preds = %86
  br label %88

88:                                               ; preds = %87
  br label %89

89:                                               ; preds = %88
  br label %90

90:                                               ; preds = %89, %59
  %91 = load i32, ptr %9, align 4, !tbaa !7
  switch i32 %91, label %107 [
    i32 0, label %92
    i32 1, label %99
    i32 2, label %106
    i32 3, label %106
    i32 -1, label %106
    i32 4, label %106
  ]

92:                                               ; preds = %90
  %93 = load ptr, ptr %7, align 8, !tbaa !16
  %94 = load ptr, ptr %6, align 8, !tbaa !16
  %95 = load i32, ptr %94, align 4, !tbaa !7
  %96 = add i32 %95, 1
  store i32 %96, ptr %94, align 4, !tbaa !7
  %97 = zext i32 %95 to i64
  %98 = getelementptr inbounds nuw i32, ptr %93, i64 %97
  store i32 0, ptr %98, align 4, !tbaa !7
  br label %126

99:                                               ; preds = %90
  %100 = load ptr, ptr %7, align 8, !tbaa !16
  %101 = load ptr, ptr %6, align 8, !tbaa !16
  %102 = load i32, ptr %101, align 4, !tbaa !7
  %103 = add i32 %102, 1
  store i32 %103, ptr %101, align 4, !tbaa !7
  %104 = zext i32 %102 to i64
  %105 = getelementptr inbounds nuw i32, ptr %100, i64 %104
  store i32 1, ptr %105, align 4, !tbaa !7
  br label %126

106:                                              ; preds = %90, %90, %90, %90
  br label %107

107:                                              ; preds = %90, %106
  br label %108

108:                                              ; preds = %107
  br label %109

109:                                              ; preds = %108
  br label %110

110:                                              ; preds = %109
  %111 = load i64, ptr @H5E_PLINE_g, align 8, !tbaa !3
  %112 = load i64, ptr @H5E_BADTYPE_g, align 8, !tbaa !3
  %113 = call i32 (ptr, ptr, i32, i64, i64, ptr, ...) @H5E_printf_stack(ptr noundef @.str.1, ptr noundef @__func__.H5Z__set_parms_atomic, i32 noundef 461, i64 noundef %111, i64 noundef %112, ptr noundef @.str.22)
  br label %114

114:                                              ; preds = %110
  br label %115

115:                                              ; preds = %114
  store i8 1, ptr %15, align 1, !tbaa !9
  %116 = load i8, ptr %15, align 1, !tbaa !9, !range !11, !noundef !12
  %117 = trunc i8 %116 to i1
  %118 = zext i1 %117 to i8
  store i8 %118, ptr %15, align 1, !tbaa !9
  br label %119

119:                                              ; preds = %115
  br label %120

120:                                              ; preds = %119
  br label %121

121:                                              ; preds = %120
  store i32 -1, ptr %14, align 4, !tbaa !7
  br label %236

122:                                              ; No predecessors!
  br label %123

123:                                              ; preds = %122
  br label %124

124:                                              ; preds = %123
  br label %125

125:                                              ; preds = %124
  br label %126

126:                                              ; preds = %125, %99, %92
  %127 = load ptr, ptr %5, align 8, !tbaa !13
  %128 = call i64 @H5T_get_precision(ptr noundef %127)
  store i64 %128, ptr %11, align 8, !tbaa !3
  %129 = icmp eq i64 %128, 0
  br i1 %129, label %130, label %149

130:                                              ; preds = %126
  br label %131

131:                                              ; preds = %130
  br label %132

132:                                              ; preds = %131
  br label %133

133:                                              ; preds = %132
  %134 = load i64, ptr @H5E_PLINE_g, align 8, !tbaa !3
  %135 = load i64, ptr @H5E_BADTYPE_g, align 8, !tbaa !3
  %136 = call i32 (ptr, ptr, i32, i64, i64, ptr, ...) @H5E_printf_stack(ptr noundef @.str.1, ptr noundef @__func__.H5Z__set_parms_atomic, i32 noundef 466, i64 noundef %134, i64 noundef %135, ptr noundef @.str.23)
  br label %137

137:                                              ; preds = %133
  br label %138

138:                                              ; preds = %137
  store i8 1, ptr %15, align 1, !tbaa !9
  %139 = load i8, ptr %15, align 1, !tbaa !9, !range !11, !noundef !12
  %140 = trunc i8 %139 to i1
  %141 = zext i1 %140 to i8
  store i8 %141, ptr %15, align 1, !tbaa !9
  br label %142

142:                                              ; preds = %138
  br label %143

143:                                              ; preds = %142
  br label %144

144:                                              ; preds = %143
  store i32 -1, ptr %14, align 4, !tbaa !7
  br label %236

145:                                              ; No predecessors!
  br label %146

146:                                              ; preds = %145
  br label %147

147:                                              ; preds = %146
  br label %148

148:                                              ; preds = %147
  br label %149

149:                                              ; preds = %148, %126
  %150 = load ptr, ptr %5, align 8, !tbaa !13
  %151 = call i32 @H5T_get_offset(ptr noundef %150)
  store i32 %151, ptr %12, align 4, !tbaa !7
  %152 = icmp slt i32 %151, 0
  br i1 %152, label %153, label %172

153:                                              ; preds = %149
  br label %154

154:                                              ; preds = %153
  br label %155

155:                                              ; preds = %154
  br label %156

156:                                              ; preds = %155
  %157 = load i64, ptr @H5E_PLINE_g, align 8, !tbaa !3
  %158 = load i64, ptr @H5E_BADTYPE_g, align 8, !tbaa !3
  %159 = call i32 (ptr, ptr, i32, i64, i64, ptr, ...) @H5E_printf_stack(ptr noundef @.str.1, ptr noundef @__func__.H5Z__set_parms_atomic, i32 noundef 470, i64 noundef %157, i64 noundef %158, ptr noundef @.str.24)
  br label %160

160:                                              ; preds = %156
  br label %161

161:                                              ; preds = %160
  store i8 1, ptr %15, align 1, !tbaa !9
  %162 = load i8, ptr %15, align 1, !tbaa !9, !range !11, !noundef !12
  %163 = trunc i8 %162 to i1
  %164 = zext i1 %163 to i8
  store i8 %164, ptr %15, align 1, !tbaa !9
  br label %165

165:                                              ; preds = %161
  br label %166

166:                                              ; preds = %165
  br label %167

167:                                              ; preds = %166
  store i32 -1, ptr %14, align 4, !tbaa !7
  br label %236

168:                                              ; No predecessors!
  br label %169

169:                                              ; preds = %168
  br label %170

170:                                              ; preds = %169
  br label %171

171:                                              ; preds = %170
  br label %172

172:                                              ; preds = %171, %149
  %173 = load i32, ptr %12, align 4, !tbaa !7
  store i32 %173, ptr %13, align 4, !tbaa !7
  %174 = load i64, ptr %11, align 8, !tbaa !3
  %175 = load i64, ptr %10, align 8, !tbaa !3
  %176 = mul i64 %175, 8
  %177 = icmp ugt i64 %174, %176
  br i1 %177, label %186, label %178

178:                                              ; preds = %172
  %179 = load i64, ptr %11, align 8, !tbaa !3
  %180 = load i32, ptr %13, align 4, !tbaa !7
  %181 = zext i32 %180 to i64
  %182 = add i64 %179, %181
  %183 = load i64, ptr %10, align 8, !tbaa !3
  %184 = mul i64 %183, 8
  %185 = icmp ugt i64 %182, %184
  br i1 %185, label %186, label %205

186:                                              ; preds = %178, %172
  br label %187

187:                                              ; preds = %186
  br label %188

188:                                              ; preds = %187
  br label %189

189:                                              ; preds = %188
  %190 = load i64, ptr @H5E_PLINE_g, align 8, !tbaa !3
  %191 = load i64, ptr @H5E_BADTYPE_g, align 8, !tbaa !3
  %192 = call i32 (ptr, ptr, i32, i64, i64, ptr, ...) @H5E_printf_stack(ptr noundef @.str.1, ptr noundef @__func__.H5Z__set_parms_atomic, i32 noundef 475, i64 noundef %190, i64 noundef %191, ptr noundef @.str.25)
  br label %193

193:                                              ; preds = %189
  br label %194

194:                                              ; preds = %193
  store i8 1, ptr %15, align 1, !tbaa !9
  %195 = load i8, ptr %15, align 1, !tbaa !9, !range !11, !noundef !12
  %196 = trunc i8 %195 to i1
  %197 = zext i1 %196 to i8
  store i8 %197, ptr %15, align 1, !tbaa !9
  br label %198

198:                                              ; preds = %194
  br label %199

199:                                              ; preds = %198
  br label %200

200:                                              ; preds = %199
  store i32 -1, ptr %14, align 4, !tbaa !7
  br label %236

201:                                              ; No predecessors!
  br label %202

202:                                              ; preds = %201
  br label %203

203:                                              ; preds = %202
  br label %204

204:                                              ; preds = %203
  br label %205

205:                                              ; preds = %204, %178
  %206 = load i64, ptr %11, align 8, !tbaa !3
  %207 = trunc i64 %206 to i32
  %208 = load ptr, ptr %7, align 8, !tbaa !16
  %209 = load ptr, ptr %6, align 8, !tbaa !16
  %210 = load i32, ptr %209, align 4, !tbaa !7
  %211 = add i32 %210, 1
  store i32 %211, ptr %209, align 4, !tbaa !7
  %212 = zext i32 %210 to i64
  %213 = getelementptr inbounds nuw i32, ptr %208, i64 %212
  store i32 %207, ptr %213, align 4, !tbaa !7
  %214 = load i32, ptr %13, align 4, !tbaa !7
  %215 = load ptr, ptr %7, align 8, !tbaa !16
  %216 = load ptr, ptr %6, align 8, !tbaa !16
  %217 = load i32, ptr %216, align 4, !tbaa !7
  %218 = add i32 %217, 1
  store i32 %218, ptr %216, align 4, !tbaa !7
  %219 = zext i32 %217 to i64
  %220 = getelementptr inbounds nuw i32, ptr %215, i64 %219
  store i32 %214, ptr %220, align 4, !tbaa !7
  %221 = load ptr, ptr %8, align 8, !tbaa !29
  %222 = load i8, ptr %221, align 1, !tbaa !9, !range !11, !noundef !12
  %223 = trunc i8 %222 to i1
  br i1 %223, label %224, label %235

224:                                              ; preds = %205
  %225 = load i32, ptr %13, align 4, !tbaa !7
  %226 = icmp ne i32 %225, 0
  br i1 %226, label %232, label %227

227:                                              ; preds = %224
  %228 = load i64, ptr %11, align 8, !tbaa !3
  %229 = load i64, ptr %10, align 8, !tbaa !3
  %230 = mul i64 %229, 8
  %231 = icmp ne i64 %228, %230
  br i1 %231, label %232, label %234

232:                                              ; preds = %227, %224
  %233 = load ptr, ptr %8, align 8, !tbaa !29
  store i8 0, ptr %233, align 1, !tbaa !9
  br label %234

234:                                              ; preds = %232, %227
  br label %235

235:                                              ; preds = %234, %205
  br label %236

236:                                              ; preds = %235, %200, %167, %144, %121, %85, %54
  br label %237

237:                                              ; preds = %236, %22
  %238 = load i32, ptr %14, align 4, !tbaa !7
  call void @llvm.lifetime.end.p0(i64 1, ptr %15) #6
  call void @llvm.lifetime.end.p0(i64 4, ptr %14) #6
  call void @llvm.lifetime.end.p0(i64 4, ptr %13) #6
  call void @llvm.lifetime.end.p0(i64 4, ptr %12) #6
  call void @llvm.lifetime.end.p0(i64 8, ptr %11) #6
  call void @llvm.lifetime.end.p0(i64 8, ptr %10) #6
  call void @llvm.lifetime.end.p0(i64 4, ptr %9) #6
  ret i32 %238
}