; Function Attrs: nounwind uwtable
define internal fastcc range(i32 -1, 1) i32 @H5Z__set_parms_atomic(ptr noundef nonnull %0, ptr noundef nonnull captures(none) %1, ptr noundef nonnull writeonly captures(none) %2, ptr noundef nonnull captures(none) %3) unnamed_addr #0 {
  %5 = load i8, ptr @H5Z_init_g, align 1, !tbaa !3, !range !7, !noundef !8
  %6 = trunc nuw i8 %5 to i1
  %7 = load i8, ptr @H5_libterm_g, align 1, !range !7
  %8 = trunc nuw i8 %7 to i1
  %9 = xor i1 %8, true
  %10 = select i1 %6, i1 true, i1 %9
  br i1 %10, label %11, label %79, !prof !9

11:                                               ; preds = %4
  %12 = load i32, ptr %1, align 4, !tbaa !12
  %13 = add i32 %12, 1
  store i32 %13, ptr %1, align 4, !tbaa !12
  %14 = zext i32 %12 to i64
  %15 = getelementptr inbounds nuw i32, ptr %2, i64 %14
  store i32 1, ptr %15, align 4, !tbaa !12
  %16 = tail call i64 @H5T_get_size(ptr noundef nonnull %0) #8
  %17 = icmp eq i64 %16, 0
  br i1 %17, label %18, label %22

18:                                               ; preds = %11
  %19 = load i64, ptr @H5E_PLINE_g, align 8, !tbaa !10
  %20 = load i64, ptr @H5E_BADTYPE_g, align 8, !tbaa !10
  %21 = tail call i32 (ptr, ptr, i32, i64, i64, ptr, ...) @H5E_printf_stack(ptr noundef nonnull @.str.1, ptr noundef nonnull @__func__.H5Z__set_parms_atomic, i32 noundef 436, i64 noundef %19, i64 noundef %20, ptr noundef nonnull @.str.4) #8
  br label %79

22:                                               ; preds = %11
  %23 = trunc i64 %16 to i32
  %24 = load i32, ptr %1, align 4, !tbaa !12
  %25 = add i32 %24, 1
  store i32 %25, ptr %1, align 4, !tbaa !12
  %26 = zext i32 %24 to i64
  %27 = getelementptr inbounds nuw i32, ptr %2, i64 %26
  store i32 %23, ptr %27, align 4, !tbaa !12
  %28 = tail call i32 @H5T_get_order(ptr noundef nonnull %0) #8
  switch i32 %28, label %33 [
    i32 -1, label %29
    i32 0, label %37
    i32 1, label %37
  ]

29:                                               ; preds = %22
  %30 = load i64, ptr @H5E_PLINE_g, align 8, !tbaa !10
  %31 = load i64, ptr @H5E_BADTYPE_g, align 8, !tbaa !10
  %32 = tail call i32 (ptr, ptr, i32, i64, i64, ptr, ...) @H5E_printf_stack(ptr noundef nonnull @.str.1, ptr noundef nonnull @__func__.H5Z__set_parms_atomic, i32 noundef 444, i64 noundef %30, i64 noundef %31, ptr noundef nonnull @.str.22) #8
  br label %79

33:                                               ; preds = %22
  %34 = load i64, ptr @H5E_PLINE_g, align 8, !tbaa !10
  %35 = load i64, ptr @H5E_BADTYPE_g, align 8, !tbaa !10
  %36 = tail call i32 (ptr, ptr, i32, i64, i64, ptr, ...) @H5E_printf_stack(ptr noundef nonnull @.str.1, ptr noundef nonnull @__func__.H5Z__set_parms_atomic, i32 noundef 461, i64 noundef %34, i64 noundef %35, ptr noundef nonnull @.str.22) #8
  br label %79

37:                                               ; preds = %22, %22
  %38 = load i32, ptr %1, align 4, !tbaa !12
  %39 = add i32 %38, 1
  store i32 %39, ptr %1, align 4, !tbaa !12
  %40 = zext i32 %38 to i64
  %41 = getelementptr inbounds nuw i32, ptr %2, i64 %40
  store i32 %28, ptr %41, align 4, !tbaa !12
  %42 = tail call i64 @H5T_get_precision(ptr noundef nonnull %0) #8
  %43 = icmp eq i64 %42, 0
  br i1 %43, label %44, label %48

44:                                               ; preds = %37
  %45 = load i64, ptr @H5E_PLINE_g, align 8, !tbaa !10
  %46 = load i64, ptr @H5E_BADTYPE_g, align 8, !tbaa !10
  %47 = tail call i32 (ptr, ptr, i32, i64, i64, ptr, ...) @H5E_printf_stack(ptr noundef nonnull @.str.1, ptr noundef nonnull @__func__.H5Z__set_parms_atomic, i32 noundef 466, i64 noundef %45, i64 noundef %46, ptr noundef nonnull @.str.23) #8
  br label %79

48:                                               ; preds = %37
  %49 = tail call i32 @H5T_get_offset(ptr noundef nonnull %0) #8
  %50 = icmp slt i32 %49, 0
  br i1 %50, label %51, label %55

51:                                               ; preds = %48
  %52 = load i64, ptr @H5E_PLINE_g, align 8, !tbaa !10
  %53 = load i64, ptr @H5E_BADTYPE_g, align 8, !tbaa !10
  %54 = tail call i32 (ptr, ptr, i32, i64, i64, ptr, ...) @H5E_printf_stack(ptr noundef nonnull @.str.1, ptr noundef nonnull @__func__.H5Z__set_parms_atomic, i32 noundef 470, i64 noundef %52, i64 noundef %53, ptr noundef nonnull @.str.24) #8
  br label %79

55:                                               ; preds = %48
  %56 = shl i64 %16, 3
  %57 = icmp ugt i64 %42, %56
  %58 = zext nneg i32 %49 to i64
  %59 = add i64 %42, %58
  %60 = icmp ugt i64 %59, %56
  %or.cond = select i1 %57, i1 true, i1 %60
  br i1 %or.cond, label %61, label %65

61:                                               ; preds = %55
  %62 = load i64, ptr @H5E_PLINE_g, align 8, !tbaa !10
  %63 = load i64, ptr @H5E_BADTYPE_g, align 8, !tbaa !10
  %64 = tail call i32 (ptr, ptr, i32, i64, i64, ptr, ...) @H5E_printf_stack(ptr noundef nonnull @.str.1, ptr noundef nonnull @__func__.H5Z__set_parms_atomic, i32 noundef 475, i64 noundef %62, i64 noundef %63, ptr noundef nonnull @.str.25) #8
  br label %79

65:                                               ; preds = %55
  %66 = trunc i64 %42 to i32
  %67 = load i32, ptr %1, align 4, !tbaa !12
  %68 = add i32 %67, 1
  store i32 %68, ptr %1, align 4, !tbaa !12
  %69 = zext i32 %67 to i64
  %70 = getelementptr inbounds nuw i32, ptr %2, i64 %69
  store i32 %66, ptr %70, align 4, !tbaa !12
  %71 = load i32, ptr %1, align 4, !tbaa !12
  %72 = add i32 %71, 1
  store i32 %72, ptr %1, align 4, !tbaa !12
  %73 = zext i32 %71 to i64
  %74 = getelementptr inbounds nuw i32, ptr %2, i64 %73
  store i32 %49, ptr %74, align 4, !tbaa !12
  %75 = load i8, ptr %3, align 1, !tbaa !3, !range !7, !noundef !8
  %76 = trunc nuw i8 %75 to i1
  br i1 %76, label %77, label %79

77:                                               ; preds = %65
  %.not = icmp eq i32 %49, 0
  %.not42 = icmp eq i64 %42, %56
  %or.cond45 = and i1 %.not42, %.not
  br i1 %or.cond45, label %79, label %78

78:                                               ; preds = %77
  store i8 0, ptr %3, align 1, !tbaa !3
  br label %79

79:                                               ; preds = %77, %18, %29, %33, %44, %51, %61, %78, %65, %4
  %.0 = phi i32 [ -1, %18 ], [ -1, %29 ], [ -1, %33 ], [ -1, %44 ], [ -1, %51 ], [ -1, %61 ], [ 0, %78 ], [ 0, %65 ], [ 0, %4 ], [ 0, %77 ]
  ret i32 %.0
}